target datalayout = "e-m:e-p270:32:32-p271:32:32-p272:64:64-i64:64-i128:128-f80:128-n8:16:32:64-S128"
target triple = "x86_64-pc-linux-gnu"

%"class.datatype::param_size::size" = type <{ ptr, i32, [4 x i8] }>
%"struct.datatype::param_size::offset" = type { %"class.datatype::param_size::size.base", %class.sort_size }
%"class.datatype::param_size::size.base" = type <{ ptr, i32 }>
%class.sort_size = type { i32, i64 }

; Function Attrs: inlinehint mustprogress nounwind uwtable
define linkonce_odr hidden void @_ZN8datatype10param_size4sizeC2Ev(ptr noundef nonnull align 8 dereferenceable(12) %0) unnamed_addr #7 comdat align 2 {
  %2 = alloca ptr, align 8
  store ptr %0, ptr %2, align 8, !tbaa !105
  %3 = load ptr, ptr %2, align 8
  store ptr getelementptr inbounds inrange(-16, 32) ({ [6 x ptr] }, ptr @_ZTVN8datatype10param_size4sizeE, i32 0, i32 0, i32 2), ptr %3, align 8, !tbaa !108
  %4 = getelementptr inbounds nuw %"class.datatype::param_size::size", ptr %3, i32 0, i32 1
  store i32 0, ptr %4, align 8, !tbaa !106
  ret void
}

; Function Attrs: mustprogress nounwind uwtable
define linkonce_odr hidden void @_ZN8datatype10param_size6offsetC2ERK9sort_size(ptr noundef nonnull align 8 dereferenceable(32) %0, ptr noundef nonnull align 8 dereferenceable(16) %1) unnamed_addr #5 comdat align 2 {
  %3 = alloca ptr, align 8
  %4 = alloca ptr, align 8
  store ptr %0, ptr %3, align 8, !tbaa !112
  store ptr %1, ptr %4, align 8, !tbaa !110
  %5 = load ptr, ptr %3, align 8
  call void @_ZN8datatype10param_size4sizeC2Ev(ptr noundef nonnull align 8 dereferenceable(12) %5) #3
  store ptr getelementptr inbounds inrange(-16, 32) ({ [6 x ptr] }, ptr @_ZTVN8datatype10param_size6offsetE, i32 0, i32 0, i32 2), ptr %5, align 8, !tbaa !108
  %6 = getelementptr inbounds nuw %"struct.datatype::param_size::offset", ptr %5, i32 0, i32 1
  %7 = load ptr, ptr %4, align 8, !tbaa !110
  call void @llvm.memcpy.p0.p0.i64(ptr align 8 %6, ptr align 8 %7, i64 16, i1 false), !tbaa.struct !114
  ret void
}

; Function Attrs: mustprogress uwtable
define hidden noundef ptr @_ZN8datatype10param_size4size9mk_offsetERK9sort_size(ptr noundef nonnull align 8 dereferenceable(16) %0) #4 align 2 {
  %2 = alloca ptr, align 8
  store ptr %0, ptr %2, align 8, !tbaa !110
  %3 = call noalias noundef ptr @_ZN6memory8allocateEm(i64 noundef 32)
  %4 = load ptr, ptr %2, align 8, !tbaa !110
  call void @_ZN8datatype10param_size6offsetC2ERK9sort_size(ptr noundef nonnull align 8 dereferenceable(32) %3, ptr noundef nonnull align 8 dereferenceable(16) %4)
  ret ptr %3
}