; Function Attrs: mustprogress uwtable
define hidden noalias noundef ptr @_ZN8datatype10param_size4size9mk_offsetERK9sort_size(ptr noundef nonnull readonly align 8 captures(none) dereferenceable(16) %0) local_unnamed_addr #4 align 2 {
  %2 = tail call noalias noundef ptr @_ZN6memory8allocateEm(i64 noundef 32)
  %3 = getelementptr inbounds nuw i8, ptr %2, i64 8
  store i32 0, ptr %3, align 8, !tbaa !99
  store ptr getelementptr inbounds nuw inrange(-16, 32) (i8, ptr @_ZTVN8datatype10param_size6offsetE, i64 16), ptr %2, align 8, !tbaa !68
  %4 = getelementptr inbounds nuw i8, ptr %2, i64 16
  tail call void @llvm.memcpy.p0.p0.i64(ptr noundef nonnull align 8 dereferenceable(16) %4, ptr noundef nonnull align 8 dereferenceable(16) %0, i64 16, i1 false), !tbaa.struct !101
  ret ptr %2
}